target datalayout = "e-m:e-p270:32:32-p271:32:32-p272:64:64-i64:64-i128:128-f80:128-n8:16:32:64-S128"
target triple = "x86_64-pc-linux-gnu"

%struct.crypto_ex_data_st = type { ptr, ptr }
%struct.x509_store_ctx_st = type { ptr, ptr, ptr, ptr, ptr, ptr, ptr, ptr, ptr, ptr, ptr, ptr, ptr, ptr, ptr, ptr, ptr, ptr, i32, i32, ptr, ptr, i32, i32, i32, ptr, ptr, ptr, i32, i32, ptr, %struct.crypto_ex_data_st, ptr, i32, ptr, ptr, ptr }
%struct.X509_VERIFY_PARAM_st = type { ptr, i64, i32, i64, i32, i32, i32, i32, ptr, ptr, i32, ptr, ptr, i64, ptr, i64 }

; Function Attrs: nounwind uwtable
define internal i32 @verify_cb_crl(ptr noundef %0, i32 noundef %1) #0 {
  %3 = alloca ptr, align 8
  %4 = alloca i32, align 4
  store ptr %0, ptr %3, align 8, !tbaa !40
  store i32 %1, ptr %4, align 4, !tbaa !8
  %5 = load i32, ptr %4, align 4, !tbaa !8
  %6 = load ptr, ptr %3, align 8, !tbaa !40
  %7 = getelementptr inbounds nuw %struct.x509_store_ctx_st, ptr %6, i32 0, i32 24
  store i32 %5, ptr %7, align 8, !tbaa !53
  %8 = load ptr, ptr %3, align 8, !tbaa !40
  %9 = getelementptr inbounds nuw %struct.x509_store_ctx_st, ptr %8, i32 0, i32 7
  %10 = load ptr, ptr %9, align 8, !tbaa !88
  %11 = load ptr, ptr %3, align 8, !tbaa !40
  %12 = call i32 %10(i32 noundef 0, ptr noundef %11)
  ret i32 %12
}

; Function Attrs: nounwind uwtable
define internal i32 @check_crl_time(ptr noundef %0, ptr noundef %1, i32 noundef %2) #0 {
  %4 = alloca i32, align 4
  %5 = alloca ptr, align 8
  %6 = alloca ptr, align 8
  %7 = alloca i32, align 4
  %8 = alloca ptr, align 8
  %9 = alloca i32, align 4
  %10 = alloca i32, align 4
  store ptr %0, ptr %5, align 8, !tbaa !40
  store ptr %1, ptr %6, align 8, !tbaa !94
  store i32 %2, ptr %7, align 4, !tbaa !8
  call void @llvm.lifetime.start.p0(i64 8, ptr %8) #8
  call void @llvm.lifetime.start.p0(i64 4, ptr %9) #8
  %11 = load ptr, ptr %5, align 8, !tbaa !40
  %12 = getelementptr inbounds nuw %struct.x509_store_ctx_st, ptr %11, i32 0, i32 4
  %13 = load ptr, ptr %12, align 8, !tbaa !72
  %14 = getelementptr inbounds nuw %struct.X509_VERIFY_PARAM_st, ptr %13, i32 0, i32 3
  %15 = load i64, ptr %14, align 8, !tbaa !73
  %16 = and i64 %15, 2
  %17 = icmp ne i64 %16, 0
  br i1 %17, label %18, label %23

18:                                               ; preds = %3
  %19 = load ptr, ptr %5, align 8, !tbaa !40
  %20 = getelementptr inbounds nuw %struct.x509_store_ctx_st, ptr %19, i32 0, i32 4
  %21 = load ptr, ptr %20, align 8, !tbaa !72
  %22 = getelementptr inbounds nuw %struct.X509_VERIFY_PARAM_st, ptr %21, i32 0, i32 1
  store ptr %22, ptr %8, align 8, !tbaa !77
  br label %34

23:                                               ; preds = %3
  %24 = load ptr, ptr %5, align 8, !tbaa !40
  %25 = getelementptr inbounds nuw %struct.x509_store_ctx_st, ptr %24, i32 0, i32 4
  %26 = load ptr, ptr %25, align 8, !tbaa !72
  %27 = getelementptr inbounds nuw %struct.X509_VERIFY_PARAM_st, ptr %26, i32 0, i32 3
  %28 = load i64, ptr %27, align 8, !tbaa !73
  %29 = and i64 %28, 2097152
  %30 = icmp ne i64 %29, 0
  br i1 %30, label %31, label %32

31:                                               ; preds = %23
  store i32 1, ptr %4, align 4
  store i32 1, ptr %10, align 4
  br label %118

32:                                               ; preds = %23
  store ptr null, ptr %8, align 8, !tbaa !77
  br label %33

33:                                               ; preds = %32
  br label %34

34:                                               ; preds = %33, %18
  %35 = load i32, ptr %7, align 4, !tbaa !8
  %36 = icmp ne i32 %35, 0
  br i1 %36, label %37, label %41

37:                                               ; preds = %34
  %38 = load ptr, ptr %6, align 8, !tbaa !94
  %39 = load ptr, ptr %5, align 8, !tbaa !40
  %40 = getelementptr inbounds nuw %struct.x509_store_ctx_st, ptr %39, i32 0, i32 27
  store ptr %38, ptr %40, align 8, !tbaa !116
  br label %41

41:                                               ; preds = %37, %34
  %42 = load ptr, ptr %6, align 8, !tbaa !94
  %43 = call ptr @X509_CRL_get0_lastUpdate(ptr noundef %42)
  %44 = load ptr, ptr %8, align 8, !tbaa !77
  %45 = call i32 @X509_cmp_time(ptr noundef %43, ptr noundef %44)
  store i32 %45, ptr %9, align 4, !tbaa !8
  %46 = load i32, ptr %9, align 4, !tbaa !8
  %47 = icmp eq i32 %46, 0
  br i1 %47, label %48, label %58

48:                                               ; preds = %41
  %49 = load i32, ptr %7, align 4, !tbaa !8
  %50 = icmp ne i32 %49, 0
  br i1 %50, label %52, label %51

51:                                               ; preds = %48
  store i32 0, ptr %4, align 4
  store i32 1, ptr %10, align 4
  br label %118

52:                                               ; preds = %48
  %53 = load ptr, ptr %5, align 8, !tbaa !40
  %54 = call i32 @verify_cb_crl(ptr noundef %53, i32 noundef 15)
  %55 = icmp ne i32 %54, 0
  br i1 %55, label %57, label %56

56:                                               ; preds = %52
  store i32 0, ptr %4, align 4
  store i32 1, ptr %10, align 4
  br label %118

57:                                               ; preds = %52
  br label %58

58:                                               ; preds = %57, %41
  %59 = load i32, ptr %9, align 4, !tbaa !8
  %60 = icmp sgt i32 %59, 0
  br i1 %60, label %61, label %71

61:                                               ; preds = %58
  %62 = load i32, ptr %7, align 4, !tbaa !8
  %63 = icmp ne i32 %62, 0
  br i1 %63, label %65, label %64

64:                                               ; preds = %61
  store i32 0, ptr %4, align 4
  store i32 1, ptr %10, align 4
  br label %118

65:                                               ; preds = %61
  %66 = load ptr, ptr %5, align 8, !tbaa !40
  %67 = call i32 @verify_cb_crl(ptr noundef %66, i32 noundef 11)
  %68 = icmp ne i32 %67, 0
  br i1 %68, label %70, label %69

69:                                               ; preds = %65
  store i32 0, ptr %4, align 4
  store i32 1, ptr %10, align 4
  br label %118

70:                                               ; preds = %65
  br label %71

71:                                               ; preds = %70, %58
  %72 = load ptr, ptr %6, align 8, !tbaa !94
  %73 = call ptr @X509_CRL_get0_nextUpdate(ptr noundef %72)
  %74 = icmp ne ptr %73, null
  br i1 %74, label %75, label %111

75:                                               ; preds = %71
  %76 = load ptr, ptr %6, align 8, !tbaa !94
  %77 = call ptr @X509_CRL_get0_nextUpdate(ptr noundef %76)
  %78 = load ptr, ptr %8, align 8, !tbaa !77
  %79 = call i32 @X509_cmp_time(ptr noundef %77, ptr noundef %78)
  store i32 %79, ptr %9, align 4, !tbaa !8
  %80 = load i32, ptr %9, align 4, !tbaa !8
  %81 = icmp eq i32 %80, 0
  br i1 %81, label %82, label %92

82:                                               ; preds = %75
  %83 = load i32, ptr %7, align 4, !tbaa !8
  %84 = icmp ne i32 %83, 0
  br i1 %84, label %86, label %85

85:                                               ; preds = %82
  store i32 0, ptr %4, align 4
  store i32 1, ptr %10, align 4
  br label %118

86:                                               ; preds = %82
  %87 = load ptr, ptr %5, align 8, !tbaa !40
  %88 = call i32 @verify_cb_crl(ptr noundef %87, i32 noundef 16)
  %89 = icmp ne i32 %88, 0
  br i1 %89, label %91, label %90

90:                                               ; preds = %86
  store i32 0, ptr %4, align 4
  store i32 1, ptr %10, align 4
  br label %118

91:                                               ; preds = %86
  br label %92

92:                                               ; preds = %91, %75
  %93 = load i32, ptr %9, align 4, !tbaa !8
  %94 = icmp slt i32 %93, 0
  br i1 %94, label %95, label %110

95:                                               ; preds = %92
  %96 = load ptr, ptr %5, align 8, !tbaa !40
  %97 = getelementptr inbounds nuw %struct.x509_store_ctx_st, ptr %96, i32 0, i32 28
  %98 = load i32, ptr %97, align 8, !tbaa !137
  %99 = and i32 %98, 2
  %100 = icmp eq i32 %99, 0
  br i1 %100, label %101, label %110

101:                                              ; preds = %95
  %102 = load i32, ptr %7, align 4, !tbaa !8
  %103 = icmp ne i32 %102, 0
  br i1 %103, label %104, label %108

104:                                              ; preds = %101
  %105 = load ptr, ptr %5, align 8, !tbaa !40
  %106 = call i32 @verify_cb_crl(ptr noundef %105, i32 noundef 12)
  %107 = icmp ne i32 %106, 0
  br i1 %107, label %109, label %108

108:                                              ; preds = %104, %101
  store i32 0, ptr %4, align 4
  store i32 1, ptr %10, align 4
  br label %118

109:                                              ; preds = %104
  br label %110

110:                                              ; preds = %109, %95, %92
  br label %111

111:                                              ; preds = %110, %71
  %112 = load i32, ptr %7, align 4, !tbaa !8
  %113 = icmp ne i32 %112, 0
  br i1 %113, label %114, label %117

114:                                              ; preds = %111
  %115 = load ptr, ptr %5, align 8, !tbaa !40
  %116 = getelementptr inbounds nuw %struct.x509_store_ctx_st, ptr %115, i32 0, i32 27
  store ptr null, ptr %116, align 8, !tbaa !116
  br label %117

117:                                              ; preds = %114, %111
  store i32 1, ptr %4, align 4
  store i32 1, ptr %10, align 4
  br label %118

118:                                              ; preds = %117, %108, %90, %85, %69, %64, %56, %51, %31
  call void @llvm.lifetime.end.p0(i64 4, ptr %9) #8
  call void @llvm.lifetime.end.p0(i64 8, ptr %8) #8
  %119 = load i32, ptr %4, align 4
  ret i32 %119
}