; Function Attrs: nounwind uwtable
define internal fastcc range(i32 0, 2) i32 @check_crl_time(ptr noundef %0, ptr noundef %1, i32 noundef range(i32 0, 2) %2) unnamed_addr #0 {
  %4 = getelementptr inbounds nuw i8, ptr %0, i64 32
  %5 = load ptr, ptr %4, align 8, !tbaa !49
  %6 = getelementptr inbounds nuw i8, ptr %5, i64 24
  %7 = load i64, ptr %6, align 8, !tbaa !88
  %8 = and i64 %7, 2
  %.not = icmp eq i64 %8, 0
  br i1 %.not, label %11, label %9

9:                                                ; preds = %3
  %10 = getelementptr inbounds nuw i8, ptr %5, i64 8
  br label %13

11:                                               ; preds = %3
  %12 = and i64 %7, 2097152
  %.not27 = icmp eq i64 %12, 0
  br i1 %.not27, label %13, label %60

13:                                               ; preds = %11, %9
  %.0 = phi ptr [ %10, %9 ], [ null, %11 ]
  %.not28 = icmp eq i32 %2, 0
  br i1 %.not28, label %16, label %14

14:                                               ; preds = %13
  %15 = getelementptr inbounds nuw i8, ptr %0, i64 200
  store ptr %1, ptr %15, align 8, !tbaa !120
  br label %16

16:                                               ; preds = %14, %13
  %17 = tail call ptr @X509_CRL_get0_lastUpdate(ptr noundef %1) #10
  %18 = tail call i32 @X509_cmp_time(ptr noundef %17, ptr noundef %.0)
  %19 = icmp eq i32 %18, 0
  br i1 %19, label %20, label %26

20:                                               ; preds = %16
  br i1 %.not28, label %60, label %21

21:                                               ; preds = %20
  %22 = getelementptr inbounds nuw i8, ptr %0, i64 176
  store i32 15, ptr %22, align 8, !tbaa !58
  %23 = getelementptr inbounds nuw i8, ptr %0, i64 56
  %24 = load ptr, ptr %23, align 8, !tbaa !59
  %25 = tail call i32 %24(i32 noundef 0, ptr noundef nonnull %0) #10
  %.not29 = icmp eq i32 %25, 0
  br i1 %.not29, label %60, label %.thread

26:                                               ; preds = %16
  %27 = icmp sgt i32 %18, 0
  br i1 %27, label %28, label %.thread

28:                                               ; preds = %26
  br i1 %.not28, label %60, label %29

29:                                               ; preds = %28
  %30 = getelementptr inbounds nuw i8, ptr %0, i64 176
  store i32 11, ptr %30, align 8, !tbaa !58
  %31 = getelementptr inbounds nuw i8, ptr %0, i64 56
  %32 = load ptr, ptr %31, align 8, !tbaa !59
  %33 = tail call i32 %32(i32 noundef 0, ptr noundef nonnull %0) #10
  %.not30 = icmp eq i32 %33, 0
  br i1 %.not30, label %60, label %.thread

.thread:                                          ; preds = %21, %29, %26
  %34 = tail call ptr @X509_CRL_get0_nextUpdate(ptr noundef %1) #10
  %.not31 = icmp eq ptr %34, null
  br i1 %.not31, label %58, label %35

35:                                               ; preds = %.thread
  %36 = tail call ptr @X509_CRL_get0_nextUpdate(ptr noundef %1) #10
  %37 = tail call i32 @X509_cmp_time(ptr noundef %36, ptr noundef %.0)
  %38 = icmp eq i32 %37, 0
  br i1 %38, label %39, label %45

39:                                               ; preds = %35
  br i1 %.not28, label %60, label %40

40:                                               ; preds = %39
  %41 = getelementptr inbounds nuw i8, ptr %0, i64 176
  store i32 16, ptr %41, align 8, !tbaa !58
  %42 = getelementptr inbounds nuw i8, ptr %0, i64 56
  %43 = load ptr, ptr %42, align 8, !tbaa !59
  %44 = tail call i32 %43(i32 noundef 0, ptr noundef nonnull %0) #10
  %.not32 = icmp eq i32 %44, 0
  br i1 %.not32, label %60, label %.thread35

45:                                               ; preds = %35
  %46 = icmp slt i32 %37, 0
  br i1 %46, label %47, label %58

47:                                               ; preds = %45
  %48 = getelementptr inbounds nuw i8, ptr %0, i64 208
  %49 = load i32, ptr %48, align 8, !tbaa !161
  %50 = and i32 %49, 2
  %51 = icmp eq i32 %50, 0
  br i1 %51, label %52, label %58

52:                                               ; preds = %47
  br i1 %.not28, label %60, label %53

53:                                               ; preds = %52
  %54 = getelementptr inbounds nuw i8, ptr %0, i64 176
  store i32 12, ptr %54, align 8, !tbaa !58
  %55 = getelementptr inbounds nuw i8, ptr %0, i64 56
  %56 = load ptr, ptr %55, align 8, !tbaa !59
  %57 = tail call i32 %56(i32 noundef 0, ptr noundef nonnull %0) #10
  %.not33 = icmp eq i32 %57, 0
  br i1 %.not33, label %60, label %.thread35

58:                                               ; preds = %45, %47, %.thread
  br i1 %.not28, label %60, label %.thread35

.thread35:                                        ; preds = %40, %53, %58
  %59 = getelementptr inbounds nuw i8, ptr %0, i64 200
  store ptr null, ptr %59, align 8, !tbaa !120
  br label %60

60:                                               ; preds = %53, %58, %.thread35, %52, %40, %39, %29, %28, %21, %20, %11
  %.026 = phi i32 [ 1, %11 ], [ 0, %20 ], [ 0, %21 ], [ 0, %28 ], [ 0, %29 ], [ 0, %39 ], [ 0, %40 ], [ 0, %53 ], [ 0, %52 ], [ 1, %.thread35 ], [ 1, %58 ]
  ret i32 %.026
}